; Function Attrs: nounwind uwtable
define hidden i32 @mbedtls_pk_encrypt(ptr noundef %0, ptr noundef %1, i64 noundef %2, ptr noundef %3, ptr noundef %4, i64 noundef %5, ptr noundef %6, ptr noundef %7) local_unnamed_addr #1 {
  %9 = load ptr, ptr %0, align 8, !tbaa !3
  %10 = icmp eq ptr %9, null
  br i1 %10, label %17, label %11

11:                                               ; preds = %8
  %12 = getelementptr inbounds nuw i8, ptr %9, i64 56
  %13 = load ptr, ptr %12, align 8, !tbaa !51
  %14 = icmp eq ptr %13, null
  br i1 %14, label %17, label %15

15:                                               ; preds = %11
  %16 = tail call i32 %13(ptr noundef nonnull %0, ptr noundef %1, i64 noundef %2, ptr noundef %3, ptr noundef %4, i64 noundef %5, ptr noundef %6, ptr noundef %7) #7
  br label %17

17:                                               ; preds = %11, %8, %15
  %.0 = phi i32 [ %16, %15 ], [ -16000, %8 ], [ -16128, %11 ]
  ret i32 %.0
}